target datalayout = "e-m:e-p270:32:32-p271:32:32-p272:64:64-i64:64-i128:128-f80:128-n8:16:32:64-S128"
target triple = "x86_64-pc-linux-gnu"

%struct.t_inputrec = type { i32, i32, i64, i32, i64, i32, i32, i32, i32, i32, i32, i32, i32, i32, i32, i32, double, double, i8, %"class.std::vector", float, float, float, i32, i32, i32, i32, float, float, i32, float, i32, i32, i8, i8, i32, float, i32, i32, i8, %struct.PressureCouplingOptions, %"class.std::vector.3", %"class.std::vector.3", i32, float, float, float, float, i32, i32, float, float, float, float, i8, i32, i32, float, float, i32, float, float, i32, %"class.std::unique_ptr", i8, %"class.std::unique_ptr.10", i8, %"class.std::unique_ptr.18", i32, float, i32, i8, i32, float, float, float, i32, float, float, i32, float, i32, i32, i32, i32, float, i32, i8, float, i64, i32, i32, float, [2 x i32], [2 x float], float, i8, %"class.std::unique_ptr.26", i8, %"class.std::unique_ptr.34", i8, %"class.std::unique_ptr.42", i32, ptr, i8, ptr, float, [3 x [3 x float]], i32, i32, i32, i32, float, float, float, float, %struct.t_grpopts, i8, i8, i8, i8, ptr, %"class.std::unique_ptr.50" }
%"class.std::vector" = type { %"struct.std::_Vector_base" }
%"struct.std::_Vector_base" = type { %"struct.std::_Vector_base<gmx::MtsLevel, std::allocator<gmx::MtsLevel>>::_Vector_impl" }
%"struct.std::_Vector_base<gmx::MtsLevel, std::allocator<gmx::MtsLevel>>::_Vector_impl" = type { %"struct.std::_Vector_base<gmx::MtsLevel, std::allocator<gmx::MtsLevel>>::_Vector_impl_data" }
%"struct.std::_Vector_base<gmx::MtsLevel, std::allocator<gmx::MtsLevel>>::_Vector_impl_data" = type { ptr, ptr, ptr }
%struct.PressureCouplingOptions = type { i32, i32, i32, float, [3 x [3 x float]], [3 x [3 x float]], i32 }
%"class.std::vector.3" = type { %"struct.std::_Vector_base.4" }
%"struct.std::_Vector_base.4" = type { %"struct.std::_Vector_base<gmx::BasicVector<float>, std::allocator<gmx::BasicVector<float>>>::_Vector_impl" }
%"struct.std::_Vector_base<gmx::BasicVector<float>, std::allocator<gmx::BasicVector<float>>>::_Vector_impl" = type { %"struct.std::_Vector_base<gmx::BasicVector<float>, std::allocator<gmx::BasicVector<float>>>::_Vector_impl_data" }
%"struct.std::_Vector_base<gmx::BasicVector<float>, std::allocator<gmx::BasicVector<float>>>::_Vector_impl_data" = type { ptr, ptr, ptr }
%"class.std::unique_ptr" = type { %"struct.std::__uniq_ptr_data" }
%"struct.std::__uniq_ptr_data" = type { %"class.std::__uniq_ptr_impl" }
%"class.std::__uniq_ptr_impl" = type { %"class.std::tuple" }
%"class.std::tuple" = type { %"struct.std::_Tuple_impl" }
%"struct.std::_Tuple_impl" = type { %"struct.std::_Head_base.9" }
%"struct.std::_Head_base.9" = type { ptr }
%"class.std::unique_ptr.10" = type { %"struct.std::__uniq_ptr_data.11" }
%"struct.std::__uniq_ptr_data.11" = type { %"class.std::__uniq_ptr_impl.12" }
%"class.std::__uniq_ptr_impl.12" = type { %"class.std::tuple.13" }
%"class.std::tuple.13" = type { %"struct.std::_Tuple_impl.14" }
%"struct.std::_Tuple_impl.14" = type { %"struct.std::_Head_base.17" }
%"struct.std::_Head_base.17" = type { ptr }
%"class.std::unique_ptr.18" = type { %"struct.std::__uniq_ptr_data.19" }
%"struct.std::__uniq_ptr_data.19" = type { %"class.std::__uniq_ptr_impl.20" }
%"class.std::__uniq_ptr_impl.20" = type { %"class.std::tuple.21" }
%"class.std::tuple.21" = type { %"struct.std::_Tuple_impl.22" }
%"struct.std::_Tuple_impl.22" = type { %"struct.std::_Head_base.25" }
%"struct.std::_Head_base.25" = type { ptr }
%"class.std::unique_ptr.26" = type { %"struct.std::__uniq_ptr_data.27" }
%"struct.std::__uniq_ptr_data.27" = type { %"class.std::__uniq_ptr_impl.28" }
%"class.std::__uniq_ptr_impl.28" = type { %"class.std::tuple.29" }
%"class.std::tuple.29" = type { %"struct.std::_Tuple_impl.30" }
%"struct.std::_Tuple_impl.30" = type { %"struct.std::_Head_base.33" }
%"struct.std::_Head_base.33" = type { ptr }
%"class.std::unique_ptr.34" = type { %"struct.std::__uniq_ptr_data.35" }
%"struct.std::__uniq_ptr_data.35" = type { %"class.std::__uniq_ptr_impl.36" }
%"class.std::__uniq_ptr_impl.36" = type { %"class.std::tuple.37" }
%"class.std::tuple.37" = type { %"struct.std::_Tuple_impl.38" }
%"struct.std::_Tuple_impl.38" = type { %"struct.std::_Head_base.41" }
%"struct.std::_Head_base.41" = type { ptr }
%"class.std::unique_ptr.42" = type { %"struct.std::__uniq_ptr_data.43" }
%"struct.std::__uniq_ptr_data.43" = type { %"class.std::__uniq_ptr_impl.44" }
%"class.std::__uniq_ptr_impl.44" = type { %"class.std::tuple.45" }
%"class.std::tuple.45" = type { %"struct.std::_Tuple_impl.46" }
%"struct.std::_Tuple_impl.46" = type { %"struct.std::_Head_base.49" }
%"struct.std::_Head_base.49" = type { ptr }
%struct.t_grpopts = type <{ i32, i32, i32, i32, i32, [4 x i8], ptr, ptr, ptr, ptr, ptr, ptr, ptr, ptr, ptr, ptr, i32, [4 x i8] }>
%"class.std::unique_ptr.50" = type { %"struct.std::__uniq_ptr_data.51" }
%"struct.std::__uniq_ptr_data.51" = type { %"class.std::__uniq_ptr_impl.52" }
%"class.std::__uniq_ptr_impl.52" = type { %"class.std::tuple.53" }
%"class.std::tuple.53" = type { %"struct.std::_Tuple_impl.54" }
%"struct.std::_Tuple_impl.54" = type { %"struct.std::_Head_base.57" }
%"struct.std::_Head_base.57" = type { ptr }
%"struct.gmx::MtsLevel" = type <{ %"class.std::bitset", i32, [4 x i8] }>
%"class.std::bitset" = type { %"struct.std::_Base_bitset" }
%"struct.std::_Base_bitset" = type { i64 }
%"class.__gnu_cxx::__normal_iterator" = type { ptr }

; Function Attrs: mustprogress nounwind uwtable
define linkonce_odr void @_ZN9__gnu_cxx17__normal_iteratorIPKN3gmx8MtsLevelESt6vectorIS2_SaIS2_EEEC2ERKS4_(ptr noundef nonnull align 8 dereferenceable(8) %0, ptr noundef nonnull align 8 dereferenceable(8) %1) unnamed_addr #2 comdat align 2 {
  %3 = alloca ptr, align 8
  %4 = alloca ptr, align 8
  store ptr %0, ptr %3, align 8, !tbaa !757
  store ptr %1, ptr %4, align 8, !tbaa !761
  %5 = load ptr, ptr %3, align 8
  %6 = getelementptr inbounds nuw %"class.__gnu_cxx::__normal_iterator", ptr %5, i32 0, i32 0
  %7 = load ptr, ptr %4, align 8, !tbaa !761
  %8 = load ptr, ptr %7, align 8, !tbaa !524
  store ptr %8, ptr %6, align 8, !tbaa !759
  ret void
}

; Function Attrs: mustprogress nounwind uwtable
define linkonce_odr noundef nonnull align 8 dereferenceable(12) ptr @_ZNK9__gnu_cxx17__normal_iteratorIPKN3gmx8MtsLevelESt6vectorIS2_SaIS2_EEEdeEv(ptr noundef nonnull align 8 dereferenceable(8) %0) #2 comdat align 2 {
  %2 = alloca ptr, align 8
  store ptr %0, ptr %2, align 8, !tbaa !757
  %3 = load ptr, ptr %2, align 8
  %4 = getelementptr inbounds nuw %"class.__gnu_cxx::__normal_iterator", ptr %3, i32 0, i32 0
  %5 = load ptr, ptr %4, align 8, !tbaa !759
  ret ptr %5
}

; Function Attrs: mustprogress nounwind uwtable
define linkonce_odr ptr @_ZNK9__gnu_cxx17__normal_iteratorIPKN3gmx8MtsLevelESt6vectorIS2_SaIS2_EEEmiEl(ptr noundef nonnull align 8 dereferenceable(8) %0, i64 noundef %1) #2 comdat align 2 {
  %3 = alloca %"class.__gnu_cxx::__normal_iterator", align 8
  %4 = alloca ptr, align 8
  %5 = alloca i64, align 8
  %6 = alloca ptr, align 8
  store ptr %0, ptr %4, align 8, !tbaa !757
  store i64 %1, ptr %5, align 8, !tbaa !21
  %7 = load ptr, ptr %4, align 8
  call void @llvm.lifetime.start.p0(i64 8, ptr %6) #5
  %8 = getelementptr inbounds nuw %"class.__gnu_cxx::__normal_iterator", ptr %7, i32 0, i32 0
  %9 = load ptr, ptr %8, align 8, !tbaa !759
  %10 = load i64, ptr %5, align 8, !tbaa !21
  %11 = sub i64 0, %10
  %12 = getelementptr inbounds %"struct.gmx::MtsLevel", ptr %9, i64 %11
  store ptr %12, ptr %6, align 8, !tbaa !524
  call void @_ZN9__gnu_cxx17__normal_iteratorIPKN3gmx8MtsLevelESt6vectorIS2_SaIS2_EEEC2ERKS4_(ptr noundef nonnull align 8 dereferenceable(8) %3, ptr noundef nonnull align 8 dereferenceable(8) %6) #5
  call void @llvm.lifetime.end.p0(i64 8, ptr %6) #5
  %13 = getelementptr inbounds nuw %"class.__gnu_cxx::__normal_iterator", ptr %3, i32 0, i32 0
  %14 = load ptr, ptr %13, align 8
  ret ptr %14
}

; Function Attrs: mustprogress nounwind uwtable
define linkonce_odr ptr @_ZNKSt6vectorIN3gmx8MtsLevelESaIS1_EE3endEv(ptr noundef nonnull align 8 dereferenceable(24) %0) #2 comdat align 2 {
  %2 = alloca %"class.__gnu_cxx::__normal_iterator", align 8
  %3 = alloca ptr, align 8
  store ptr %0, ptr %3, align 8, !tbaa !236
  %4 = load ptr, ptr %3, align 8
  %5 = getelementptr inbounds nuw %"struct.std::_Vector_base", ptr %4, i32 0, i32 0
  %6 = getelementptr inbounds nuw %"struct.std::_Vector_base<gmx::MtsLevel, std::allocator<gmx::MtsLevel>>::_Vector_impl_data", ptr %5, i32 0, i32 1
  call void @_ZN9__gnu_cxx17__normal_iteratorIPKN3gmx8MtsLevelESt6vectorIS2_SaIS2_EEEC2ERKS4_(ptr noundef nonnull align 8 dereferenceable(8) %2, ptr noundef nonnull align 8 dereferenceable(8) %6) #5
  %7 = getelementptr inbounds nuw %"class.__gnu_cxx::__normal_iterator", ptr %2, i32 0, i32 0
  %8 = load ptr, ptr %7, align 8
  ret ptr %8
}

; Function Attrs: mustprogress nounwind uwtable
define linkonce_odr noundef nonnull align 8 dereferenceable(12) ptr @_ZNKSt6vectorIN3gmx8MtsLevelESaIS1_EE4backEv(ptr noundef nonnull align 8 dereferenceable(24) %0) #2 comdat align 2 {
  %2 = alloca ptr, align 8
  %3 = alloca %"class.__gnu_cxx::__normal_iterator", align 8
  %4 = alloca %"class.__gnu_cxx::__normal_iterator", align 8
  store ptr %0, ptr %2, align 8, !tbaa !236
  %5 = load ptr, ptr %2, align 8
  call void @llvm.lifetime.start.p0(i64 8, ptr %3) #5
  call void @llvm.lifetime.start.p0(i64 8, ptr %4) #5
  %6 = call ptr @_ZNKSt6vectorIN3gmx8MtsLevelESaIS1_EE3endEv(ptr noundef nonnull align 8 dereferenceable(24) %5) #5
  %7 = getelementptr inbounds nuw %"class.__gnu_cxx::__normal_iterator", ptr %4, i32 0, i32 0
  store ptr %6, ptr %7, align 8
  %8 = call ptr @_ZNK9__gnu_cxx17__normal_iteratorIPKN3gmx8MtsLevelESt6vectorIS2_SaIS2_EEEmiEl(ptr noundef nonnull align 8 dereferenceable(8) %4, i64 noundef 1) #5
  %9 = getelementptr inbounds nuw %"class.__gnu_cxx::__normal_iterator", ptr %3, i32 0, i32 0
  store ptr %8, ptr %9, align 8
  %10 = call noundef nonnull align 8 dereferenceable(12) ptr @_ZNK9__gnu_cxx17__normal_iteratorIPKN3gmx8MtsLevelESt6vectorIS2_SaIS2_EEEdeEv(ptr noundef nonnull align 8 dereferenceable(8) %3) #5
  call void @llvm.lifetime.end.p0(i64 8, ptr %4) #5
  call void @llvm.lifetime.end.p0(i64 8, ptr %3) #5
  ret ptr %10
}

; Function Attrs: mustprogress uwtable
define noundef i32 @_Z21ir_optimal_nstpcouplePK10t_inputrec(ptr noundef %0) #3 {
  %2 = alloca ptr, align 8
  %3 = alloca i32, align 4
  %4 = alloca i32, align 4
  %5 = alloca i32, align 4
  %6 = alloca i32, align 4
  store ptr %0, ptr %2, align 8, !tbaa !34
  call void @llvm.lifetime.start.p0(i64 4, ptr %3) #5
  %7 = load ptr, ptr %2, align 8, !tbaa !34
  %8 = getelementptr inbounds nuw %struct.t_inputrec, ptr %7, i32 0, i32 40
  %9 = getelementptr inbounds nuw %struct.PressureCouplingOptions, ptr %8, i32 0, i32 0
  %10 = load i32, ptr %9, align 4, !tbaa !748
  %11 = call noundef i32 @_Z29pcouple_min_integration_steps16PressureCoupling(i32 noundef %10)
  store i32 %11, ptr %3, align 4, !tbaa !212
  call void @llvm.lifetime.start.p0(i64 4, ptr %4) #5
  store i32 100, ptr %4, align 4, !tbaa !212
  call void @llvm.lifetime.start.p0(i64 4, ptr %5) #5
  %12 = load ptr, ptr %2, align 8, !tbaa !34
  %13 = getelementptr inbounds nuw %struct.t_inputrec, ptr %12, i32 0, i32 18
  %14 = load i8, ptr %13, align 8, !tbaa !146, !range !749, !noundef !750
  %15 = trunc i8 %14 to i1
  br i1 %15, label %16, label %22

16:                                               ; preds = %1
  %17 = load ptr, ptr %2, align 8, !tbaa !34
  %18 = getelementptr inbounds nuw %struct.t_inputrec, ptr %17, i32 0, i32 19
  %19 = call noundef nonnull align 8 dereferenceable(12) ptr @_ZNKSt6vectorIN3gmx8MtsLevelESaIS1_EE4backEv(ptr noundef nonnull align 8 dereferenceable(24) %18) #5
  %20 = getelementptr inbounds nuw %"struct.gmx::MtsLevel", ptr %19, i32 0, i32 1
  %21 = load i32, ptr %20, align 8, !tbaa !751
  br label %23

22:                                               ; preds = %1
  br label %23

23:                                               ; preds = %22, %16
  %24 = phi i32 [ %21, %16 ], [ 1, %22 ]
  store i32 %24, ptr %5, align 4, !tbaa !212
  call void @llvm.lifetime.start.p0(i64 4, ptr %6) #5
  %25 = load i32, ptr %3, align 4, !tbaa !212
  %26 = icmp eq i32 %25, 0
  br i1 %26, label %41, label %27

27:                                               ; preds = %23
  %28 = load ptr, ptr %2, align 8, !tbaa !34
  %29 = getelementptr inbounds nuw %struct.t_inputrec, ptr %28, i32 0, i32 17
  %30 = load double, ptr %29, align 8, !tbaa !145
  %31 = fmul double 1.000000e+02, %30
  %32 = load ptr, ptr %2, align 8, !tbaa !34
  %33 = getelementptr inbounds nuw %struct.t_inputrec, ptr %32, i32 0, i32 40
  %34 = getelementptr inbounds nuw %struct.PressureCouplingOptions, ptr %33, i32 0, i32 3
  %35 = load float, ptr %34, align 4, !tbaa !755
  %36 = load i32, ptr %3, align 4, !tbaa !212
  %37 = sitofp i32 %36 to float
  %38 = fdiv float %35, %37
  %39 = fpext float %38 to double
  %40 = fcmp ole double %31, %39
  br i1 %40, label %41, label %42

41:                                               ; preds = %27, %23
  store i32 100, ptr %6, align 4, !tbaa !212
  br label %77

42:                                               ; preds = %27
  %43 = load ptr, ptr %2, align 8, !tbaa !34
  %44 = getelementptr inbounds nuw %struct.t_inputrec, ptr %43, i32 0, i32 40
  %45 = getelementptr inbounds nuw %struct.PressureCouplingOptions, ptr %44, i32 0, i32 3
  %46 = load float, ptr %45, align 4, !tbaa !755
  %47 = fpext float %46 to double
  %48 = load ptr, ptr %2, align 8, !tbaa !34
  %49 = getelementptr inbounds nuw %struct.t_inputrec, ptr %48, i32 0, i32 17
  %50 = load double, ptr %49, align 8, !tbaa !145
  %51 = load i32, ptr %3, align 4, !tbaa !212
  %52 = sitofp i32 %51 to double
  %53 = fmul double %50, %52
  %54 = fdiv double %47, %53
  %55 = fadd double %54, 1.000000e-03
  %56 = fptosi double %55 to i32
  store i32 %56, ptr %6, align 4, !tbaa !212
  %57 = load i32, ptr %6, align 4, !tbaa !212
  %58 = load i32, ptr %5, align 4, !tbaa !212
  %59 = icmp slt i32 %57, %58
  br i1 %59, label %60, label %62

60:                                               ; preds = %42
  %61 = load i32, ptr %5, align 4, !tbaa !212
  store i32 %61, ptr %6, align 4, !tbaa !212
  br label %62

62:                                               ; preds = %60, %42
  %63 = load ptr, ptr %2, align 8, !tbaa !34
  %64 = getelementptr inbounds nuw %struct.t_inputrec, ptr %63, i32 0, i32 18
  %65 = load i8, ptr %64, align 8, !tbaa !146, !range !749, !noundef !750
  %66 = trunc i8 %65 to i1
  br i1 %66, label %76, label %67

67:                                               ; preds = %62
  br label %68

68:                                               ; preds = %72, %67
  %69 = load i32, ptr %6, align 4, !tbaa !212
  %70 = srem i32 100, %69
  %71 = icmp ne i32 %70, 0
  br i1 %71, label %72, label %75

72:                                               ; preds = %68
  %73 = load i32, ptr %6, align 4, !tbaa !212
  %74 = add nsw i32 %73, -1
  store i32 %74, ptr %6, align 4, !tbaa !212
  br label %68, !llvm.loop !756

75:                                               ; preds = %68
  br label %76

76:                                               ; preds = %75, %62
  br label %77

77:                                               ; preds = %76, %41
  %78 = load ptr, ptr %2, align 8, !tbaa !34
  %79 = getelementptr inbounds nuw %struct.t_inputrec, ptr %78, i32 0, i32 18
  %80 = load i8, ptr %79, align 8, !tbaa !146, !range !749, !noundef !750
  %81 = trunc i8 %80 to i1
  br i1 %81, label %82, label %88

82:                                               ; preds = %77
  %83 = load i32, ptr %6, align 4, !tbaa !212
  %84 = load i32, ptr %6, align 4, !tbaa !212
  %85 = load i32, ptr %5, align 4, !tbaa !212
  %86 = srem i32 %84, %85
  %87 = sub nsw i32 %83, %86
  store i32 %87, ptr %6, align 4, !tbaa !212
  br label %88

88:                                               ; preds = %82, %77
  %89 = load i32, ptr %6, align 4, !tbaa !212
  call void @llvm.lifetime.end.p0(i64 4, ptr %6) #5
  call void @llvm.lifetime.end.p0(i64 4, ptr %5) #5
  call void @llvm.lifetime.end.p0(i64 4, ptr %4) #5
  call void @llvm.lifetime.end.p0(i64 4, ptr %3) #5
  ret i32 %89
}