; Function Attrs: mustprogress uwtable
define noundef i32 @_Z21ir_optimal_nstpcouplePK10t_inputrec(ptr noundef readonly captures(none) %0) local_unnamed_addr #1 {
  %2 = getelementptr inbounds nuw i8, ptr %0, i64 204
  %3 = load i32, ptr %2, align 4, !tbaa !247
  %4 = tail call noundef i32 @_Z29pcouple_min_integration_steps16PressureCoupling(i32 noundef %3)
  %5 = getelementptr inbounds nuw i8, ptr %0, i64 96
  %6 = load i8, ptr %5, align 8, !tbaa !248, !range !249, !noundef !250
  %7 = trunc nuw i8 %6 to i1
  br i1 %7, label %8, label %13

8:                                                ; preds = %1
  %9 = getelementptr inbounds nuw i8, ptr %0, i64 112
  %10 = load ptr, ptr %9, align 8, !tbaa !251
  %11 = getelementptr inbounds i8, ptr %10, i64 -8
  %12 = load i32, ptr %11, align 8, !tbaa !252
  br label %13

13:                                               ; preds = %1, %8
  %14 = phi i32 [ %12, %8 ], [ 1, %1 ]
  %15 = icmp eq i32 %4, 0
  br i1 %15, label %.loopexit, label %16

16:                                               ; preds = %13
  %17 = getelementptr inbounds nuw i8, ptr %0, i64 88
  %18 = load double, ptr %17, align 8, !tbaa !245
  %19 = fmul double %18, 1.000000e+02
  %20 = getelementptr inbounds nuw i8, ptr %0, i64 216
  %21 = load float, ptr %20, align 4, !tbaa !256
  %22 = uitofp nneg i32 %4 to float
  %23 = fdiv float %21, %22
  %24 = fpext float %23 to double
  %25 = fcmp ugt double %19, %24
  br i1 %25, label %26, label %.loopexit

26:                                               ; preds = %16
  %27 = fpext float %21 to double
  %28 = uitofp nneg i32 %4 to double
  %29 = fmul double %18, %28
  %30 = fdiv double %27, %29
  %31 = fadd double %30, 1.000000e-03
  %32 = fptosi double %31 to i32
  %spec.select = tail call i32 @llvm.smax.i32(i32 %14, i32 %32)
  br i1 %7, label %.thread, label %.preheader

.preheader:                                       ; preds = %26, %.preheader
  %.2 = phi i32 [ %34, %.preheader ], [ %spec.select, %26 ]
  %33 = srem i32 100, %.2
  %.not = icmp eq i32 %33, 0
  %34 = add nsw i32 %.2, -1
  br i1 %.not, label %.loopexit.thread, label %.preheader, !llvm.loop !257

.loopexit:                                        ; preds = %13, %16
  br i1 %7, label %.thread, label %.loopexit.thread

.thread:                                          ; preds = %26, %.loopexit
  %.024 = phi i32 [ 100, %.loopexit ], [ %spec.select, %26 ]
  %35 = srem i32 %.024, %14
  %36 = sub nsw i32 %.024, %35
  br label %.loopexit.thread

.loopexit.thread:                                 ; preds = %.preheader, %.thread, %.loopexit
  %.3 = phi i32 [ %36, %.thread ], [ 100, %.loopexit ], [ %.2, %.preheader ]
  ret i32 %.3
}